Certificate:
    Data:
        Version: 3 (0x2)
        Serial Number: 4098 (0x1002)
        Signature Algorithm: sha256WithRSAEncryption
        Issuer: C=US, ST=Indiana, L=Westville, O=Purdue University Northwest, OU=Westville campus, CN=www.ca.edu/emailAddress=ca@pnw.edu
        Validity
            Not Before: Mar  9 21:59:58 2020 GMT
            Not After : Feb 14 21:59:58 2120 GMT
        Subject: C=US, ST=Indiana, O=Imail Corp., OU=IT department, CN=imail.its454/emailAddress=admin@imail.its454
        Subject Public Key Info:
            Public Key Algorithm: rsaEncryption
                RSA Public-Key: (2048 bit)
                Modulus:
                    00:cf:f2:a9:fb:69:ab:84:60:52:f0:f6:28:a4:0c:
                    a3:94:2e:4c:d0:3b:97:2f:c8:82:2a:42:97:a7:b6:
                    ae:28:91:54:e6:2b:5c:33:a7:19:d0:0e:c9:01:ad:
                    66:4d:ce:81:dc:c4:2f:f9:00:03:fd:5f:de:f6:d0:
                    0d:ec:b7:82:b3:a4:de:92:71:a8:7b:7e:a1:bf:8c:
                    93:1c:8c:cc:88:a9:5b:f8:e2:dd:3f:c0:f4:27:7c:
                    91:f8:7a:9b:31:50:c4:6a:1c:f8:00:7a:9e:a7:7b:
                    76:96:6b:eb:02:8e:83:9d:99:2d:de:1e:d8:82:05:
                    47:9d:62:09:b3:80:81:31:54:6e:0a:c3:e9:7d:0c:
                    f2:1b:26:5a:8c:1e:42:5d:22:d2:28:e4:19:12:0d:
                    25:f3:7b:db:ed:76:aa:7a:49:b7:2c:ca:e8:ad:6c:
                    fa:e7:ed:6e:bf:14:10:88:94:c9:73:e3:28:49:42:
                    2c:d2:78:f7:d8:67:74:e4:cc:a1:ed:b9:47:a5:fa:
                    5e:3d:9d:47:31:c7:53:8b:c0:fd:5a:39:bd:18:91:
                    31:0b:d3:7b:48:13:30:0a:c4:76:85:a4:6f:78:48:
                    05:69:3a:d4:a1:f3:da:57:ed:75:fa:40:ad:f1:9e:
                    2e:89:5a:b2:77:3d:1c:b2:4b:a1:7d:0c:3a:a2:9f:
                    40:47
                Exponent: 65537 (0x10001)
        X509v3 extensions:
            X509v3 Basic Constraints: 
                CA:FALSE
            Netscape Comment: 
                OpenSSL Generated Certificate
            X509v3 Subject Key Identifier: 
                8A:D7:AC:EB:B3:53:F6:3F:40:6A:B8:7C:CC:63:70:AD:D6:3A:9A:C8
            X509v3 Authority Key Identifier: 
                keyid:72:F7:1C:49:44:84:8D:22:5F:3F:CA:D7:68:0E:EC:94:15:E0:F0:9E

    Signature Algorithm: sha256WithRSAEncryption
         01:58:24:50:e2:88:15:d4:2c:4a:50:c0:3d:1a:a7:84:1e:2b:
         c7:30:90:bd:5f:62:99:6f:46:68:ec:0e:b4:a0:1e:87:dc:e6:
         d7:23:28:2b:01:32:cf:ab:8f:fd:dc:04:ac:22:6e:18:d6:f8:
         e3:a6:77:16:f3:8f:07:57:cf:04:ec:e5:83:f2:72:b7:dd:58:
         07:00:67:b2:1d:69:64:52:8b:e3:ab:81:92:39:85:d0:72:9f:
         e5:1a:81:25:d7:38:83:ef:44:53:4c:7d:f2:64:14:56:16:f5:
         2d:08:c8:28:09:3c:70:c3:a9:dc:7e:09:f8:ef:54:d8:5d:75:
         bb:64:3b:2b:f6:f1:c7:37:00:a7:ae:21:8c:ab:29:7f:37:bf:
         44:c3:da:43:ce:48:09:57:ae:e4:84:cf:28:21:e6:ae:ae:ed:
         54:95:2a:f5:31:db:f7:c8:19:c8:b6:69:00:71:cb:ef:e2:21:
         ba:c9:ea:5b:2e:56:f2:71:91:fb:83:e8:0a:a7:9c:a7:c8:cc:
         9a:0d:70:8c:f1:ac:f5:65:76:c5:26:f0:90:15:64:eb:26:07:
         5f:87:4a:2e:e9:d1:d9:c2:85:ad:d2:69:63:be:12:69:ee:53:
         9d:24:3b:d9:54:d8:2f:18:39:54:fa:8b:76:bc:92:26:ea:e7:
         da:e3:bb:08
-----BEGIN CERTIFICATE-----
MIIEJjCCAw6gAwIBAgICEAIwDQYJKoZIhvcNAQELBQAwgaQxCzAJBgNVBAYTAlVT
MRAwDgYDVQQIDAdJbmRpYW5hMRIwEAYDVQQHDAlXZXN0dmlsbGUxJDAiBgNVBAoM
G1B1cmR1ZSBVbml2ZXJzaXR5IE5vcnRod2VzdDEZMBcGA1UECwwQV2VzdHZpbGxl
IGNhbXB1czETMBEGA1UEAwwKd3d3LmNhLmVkdTEZMBcGCSqGSIb3DQEJARYKY2FA
cG53LmVkdTAgFw0yMDAzMDkyMTU5NThaGA8yMTIwMDIxNDIxNTk1OFowgYcxCzAJ
BgNVBAYTAlVTMRAwDgYDVQQIDAdJbmRpYW5hMRQwEgYDVQQKDAtJbWFpbCBDb3Jw
LjEWMBQGA1UECwwNSVQgZGVwYXJ0bWVudDEVMBMGA1UEAwwMaW1haWwuaXRzNDU0
MSEwHwYJKoZIhvcNAQkBFhJhZG1pbkBpbWFpbC5pdHM0NTQwggEiMA0GCSqGSIb3
DQEBAQUAA4IBDwAwggEKAoIBAQDP8qn7aauEYFLw9iikDKOULkzQO5cvyIIqQpen
tq4okVTmK1wzpxnQDskBrWZNzoHcxC/5AAP9X9720A3st4KzpN6Scah7fqG/jJMc
jMyIqVv44t0/wPQnfJH4epsxUMRqHPgAep6ne3aWa+sCjoOdmS3eHtiCBUedYgmz
gIExVG4Kw+l9DPIbJlqMHkJdItIo5BkSDSXze9vtdqp6SbcsyuitbPrn7W6/FBCI
lMlz4yhJQizSePfYZ3TkzKHtuUel+l49nUcxx1OLwP1aOb0YkTEL03tIEzAKxHaF
pG94SAVpOtSh89pX7XX6QK3xni6JWrJ3PRyyS6F9DDqin0BHAgMBAAGjezB5MAkG
A1UdEwQCMAAwLAYJYIZIAYb4QgENBB8WHU9wZW5TU0wgR2VuZXJhdGVkIENlcnRp
ZmljYXRlMB0GA1UdDgQWBBSK16zrs1P2P0BquHzMY3Ct1jqayDAfBgNVHSMEGDAW
gBRy9xxJRISNIl8/ytdoDuyUFeDwnjANBgkqhkiG9w0BAQsFAAOCAQEAAVgkUOKI
FdQsSlDAPRqnhB4rxzCQvV9imW9GaOwOtKAeh9zm1yMoKwEyz6uP/dwErCJuGNb4
46Z3FvOPB1fPBOzlg/Jyt91YBwBnsh1pZFKL46uBkjmF0HKf5RqBJdc4g+9EU0x9
8mQUVhb1LQjIKAk8cMOp3H4J+O9U2F11u2Q7K/bxxzcAp64hjKspfze/RMPaQ85I
CVeu5ITPKCHmrq7tVJUq9THb98gZyLZpAHHL7+IhusnqWy5W8nGR+4PoCqecp8jM
mg1wjPGs9WV2xSbwkBVk6yYHX4dKLunR2cKFrdJpY74Sae5TnSQ72VTYLxg5VPqL
drySJurn2uO7CA==
-----END CERTIFICATE-----
